target datalayout = "e-m:e-p270:32:32-p271:32:32-p272:64:64-i64:64-i128:128-f80:128-n8:16:32:64-S128"
target triple = "x86_64-unknown-linux-gnu"

%"class.std::complex" = type { { double, double } }
%class.anon.60 = type { ptr, ptr, ptr, ptr, ptr }

; Function Attrs: mustprogress nounwind uwtable
define linkonce_odr noundef double @_ZNKSt7complexIdE4realB5cxx11Ev(ptr noundef nonnull align 8 dereferenceable(16) %this) #2 comdat align 2 {
entry:
  %this.addr = alloca ptr, align 8
  store ptr %this, ptr %this.addr, align 8, !tbaa !3
  %this1 = load ptr, ptr %this.addr, align 8
  %_M_value = getelementptr inbounds nuw %"class.std::complex", ptr %this1, i32 0, i32 0
  %_M_value.realp = getelementptr inbounds nuw { double, double }, ptr %_M_value, i32 0, i32 0
  %0 = load double, ptr %_M_value.realp, align 8, !tbaa !14
  ret double %0
}

; Function Attrs: mustprogress nounwind uwtable
define linkonce_odr void @_ZNSt7complexIdEC2Edd(ptr noundef nonnull align 8 dereferenceable(16) %this, double noundef %__r, double noundef %__i) unnamed_addr #2 comdat align 2 {
entry:
  %this.addr = alloca ptr, align 8
  %__r.addr = alloca double, align 8
  %__i.addr = alloca double, align 8
  store ptr %this, ptr %this.addr, align 8, !tbaa !3
  store double %__r, ptr %__r.addr, align 8, !tbaa !14
  store double %__i, ptr %__i.addr, align 8, !tbaa !14
  %this1 = load ptr, ptr %this.addr, align 8
  %_M_value = getelementptr inbounds nuw %"class.std::complex", ptr %this1, i32 0, i32 0
  %0 = load double, ptr %__r.addr, align 8, !tbaa !14
  %1 = load double, ptr %__i.addr, align 8, !tbaa !14
  %_M_value.realp = getelementptr inbounds nuw { double, double }, ptr %_M_value, i32 0, i32 0
  %_M_value.imagp = getelementptr inbounds nuw { double, double }, ptr %_M_value, i32 0, i32 1
  store double %0, ptr %_M_value.realp, align 8
  store double %1, ptr %_M_value.imagp, align 8
  ret void
}

; Function Attrs: mustprogress uwtable
define internal noundef double @_ZN8QuantLib12_GLOBAL__N_12chERKNS_13HestonProcessEddddd(ptr noundef nonnull align 8 dereferenceable(220) %process, double noundef %x, double noundef %u, double noundef %nu_0, double noundef %nu_t, double noundef %dt) #3 {
entry:
  %process.addr = alloca ptr, align 8
  %x.addr = alloca double, align 8
  %u.addr = alloca double, align 8
  %nu_0.addr = alloca double, align 8
  %nu_t.addr = alloca double, align 8
  %dt.addr = alloca double, align 8
  %ref.tmp = alloca %"class.std::complex", align 8
  %ref.tmp2 = alloca %"class.std::complex", align 8
  store ptr %process, ptr %process.addr, align 8, !tbaa !3
  store double %x, ptr %x.addr, align 8, !tbaa !14
  store double %u, ptr %u.addr, align 8, !tbaa !14
  store double %nu_0, ptr %nu_0.addr, align 8, !tbaa !14
  store double %nu_t, ptr %nu_t.addr, align 8, !tbaa !14
  store double %dt, ptr %dt.addr, align 8, !tbaa !14
  %0 = load double, ptr %u.addr, align 8, !tbaa !14
  %1 = load double, ptr %x.addr, align 8, !tbaa !14
  %mul = fmul double %0, %1
  %call = call double @sin(double noundef %mul) #14, !tbaa !55
  %mul1 = fmul double 0x3FE45F306DC9C883, %call
  %2 = load double, ptr %u.addr, align 8, !tbaa !14
  %div = fdiv double %mul1, %2
  call void @llvm.lifetime.start.p0(i64 16, ptr %ref.tmp) #14
  %3 = load ptr, ptr %process.addr, align 8, !tbaa !3
  call void @llvm.lifetime.start.p0(i64 16, ptr %ref.tmp2) #14
  %4 = load double, ptr %u.addr, align 8, !tbaa !14
  call void @_ZNSt7complexIdEC2Edd(ptr noundef nonnull align 8 dereferenceable(16) %ref.tmp2, double noundef %4, double noundef 0.000000e+00)
  %5 = load double, ptr %nu_0.addr, align 8, !tbaa !14
  %6 = load double, ptr %nu_t.addr, align 8, !tbaa !14
  %7 = load double, ptr %dt.addr, align 8, !tbaa !14
  %call3 = call { double, double } @_ZN8QuantLib12_GLOBAL__N_13PhiERKNS_13HestonProcessERKSt7complexIdEddd(ptr noundef nonnull align 8 dereferenceable(220) %3, ptr noundef nonnull align 8 dereferenceable(16) %ref.tmp2, double noundef %5, double noundef %6, double noundef %7)
  %coerce.dive = getelementptr inbounds nuw %"class.std::complex", ptr %ref.tmp, i32 0, i32 0
  %8 = getelementptr inbounds nuw { double, double }, ptr %coerce.dive, i32 0, i32 0
  %9 = extractvalue { double, double } %call3, 0
  store double %9, ptr %8, align 8
  %10 = getelementptr inbounds nuw { double, double }, ptr %coerce.dive, i32 0, i32 1
  %11 = extractvalue { double, double } %call3, 1
  store double %11, ptr %10, align 8
  %call4 = call noundef double @_ZNKSt7complexIdE4realB5cxx11Ev(ptr noundef nonnull align 8 dereferenceable(16) %ref.tmp)
  %mul5 = fmul double %div, %call4
  call void @llvm.lifetime.end.p0(i64 16, ptr %ref.tmp2) #14
  call void @llvm.lifetime.end.p0(i64 16, ptr %ref.tmp) #14
  ret double %mul5
}

; Function Attrs: inlinehint mustprogress uwtable
define internal noundef double @"_ZZN8QuantLib12_GLOBAL__N_19cdf_nu_dsERKNS_13HestonProcessEddddNS1_14DiscretizationEENK3$_0clEd"(ptr noundef nonnull align 8 dereferenceable(40) %this, double noundef %xi) #5 align 2 {
entry:
  %this.addr = alloca ptr, align 8
  %xi.addr = alloca double, align 8
  store ptr %this, ptr %this.addr, align 8, !tbaa !3
  store double %xi, ptr %xi.addr, align 8, !tbaa !14
  %this1 = load ptr, ptr %this.addr, align 8
  %0 = getelementptr inbounds nuw %class.anon.60, ptr %this1, i32 0, i32 0
  %1 = load ptr, ptr %0, align 8, !tbaa !167
  %2 = getelementptr inbounds nuw %class.anon.60, ptr %this1, i32 0, i32 1
  %3 = load ptr, ptr %2, align 8, !tbaa !169
  %4 = load double, ptr %3, align 8, !tbaa !14
  %5 = load double, ptr %xi.addr, align 8, !tbaa !14
  %6 = getelementptr inbounds nuw %class.anon.60, ptr %this1, i32 0, i32 2
  %7 = load ptr, ptr %6, align 8, !tbaa !170
  %8 = load double, ptr %7, align 8, !tbaa !14
  %9 = getelementptr inbounds nuw %class.anon.60, ptr %this1, i32 0, i32 3
  %10 = load ptr, ptr %9, align 8, !tbaa !171
  %11 = load double, ptr %10, align 8, !tbaa !14
  %12 = getelementptr inbounds nuw %class.anon.60, ptr %this1, i32 0, i32 4
  %13 = load ptr, ptr %12, align 8, !tbaa !172
  %14 = load double, ptr %13, align 8, !tbaa !14
  %call = call noundef double @_ZN8QuantLib12_GLOBAL__N_12chERKNS_13HestonProcessEddddd(ptr noundef nonnull align 8 dereferenceable(220) %1, double noundef %4, double noundef %5, double noundef %8, double noundef %11, double noundef %14)
  ret double %call
}

; Function Attrs: mustprogress nounwind uwtable
define linkonce_odr noundef ptr @_ZNKSt9_Any_data9_M_accessEv(ptr noundef nonnull align 8 dereferenceable(16) %this) #2 comdat align 2 {
entry:
  %this.addr = alloca ptr, align 8
  store ptr %this, ptr %this.addr, align 8, !tbaa !3
  %this1 = load ptr, ptr %this.addr, align 8
  %arrayidx = getelementptr inbounds [16 x i8], ptr %this1, i64 0, i64 0
  ret ptr %arrayidx
}

; Function Attrs: mustprogress uwtable
define internal noundef double @"_ZSt13__invoke_implIdRZN8QuantLib12_GLOBAL__N_19cdf_nu_dsERKNS0_13HestonProcessEddddNS2_14DiscretizationEE3$_0JdEET_St14__invoke_otherOT0_DpOT1_"(ptr noundef nonnull align 8 dereferenceable(40) %__f, ptr noundef nonnull align 8 dereferenceable(8) %__args) #3 {
entry:
  %__f.addr = alloca ptr, align 8
  %__args.addr = alloca ptr, align 8
  store ptr %__f, ptr %__f.addr, align 8, !tbaa !3
  store ptr %__args, ptr %__args.addr, align 8, !tbaa !3
  %0 = load ptr, ptr %__f.addr, align 8, !tbaa !3
  %1 = load ptr, ptr %__args.addr, align 8, !tbaa !3
  %2 = load double, ptr %1, align 8, !tbaa !14
  %call = call noundef double @"_ZZN8QuantLib12_GLOBAL__N_19cdf_nu_dsERKNS_13HestonProcessEddddNS1_14DiscretizationEENK3$_0clEd"(ptr noundef nonnull align 8 dereferenceable(40) %0, double noundef %2)
  ret double %call
}

; Function Attrs: mustprogress nounwind uwtable
define internal noundef nonnull align 8 dereferenceable(8) ptr @"_ZNKSt9_Any_data9_M_accessIPZN8QuantLib12_GLOBAL__N_19cdf_nu_dsERKNS1_13HestonProcessEddddNS3_14DiscretizationEE3$_0EERKT_v"(ptr noundef nonnull align 8 dereferenceable(16) %this) #2 align 2 {
entry:
  %this.addr = alloca ptr, align 8
  store ptr %this, ptr %this.addr, align 8, !tbaa !3
  %this1 = load ptr, ptr %this.addr, align 8
  %call = call noundef ptr @_ZNKSt9_Any_data9_M_accessEv(ptr noundef nonnull align 8 dereferenceable(16) %this1) #14
  ret ptr %call
}

; Function Attrs: mustprogress uwtable
define internal noundef double @"_ZSt10__invoke_rIdRZN8QuantLib12_GLOBAL__N_19cdf_nu_dsERKNS0_13HestonProcessEddddNS2_14DiscretizationEE3$_0JdEENSt9enable_ifIX16is_invocable_r_vIT_T0_DpT1_EES9_E4typeEOSA_DpOSB_"(ptr noundef nonnull align 8 dereferenceable(40) %__fn, ptr noundef nonnull align 8 dereferenceable(8) %__args) #3 {
entry:
  %__fn.addr = alloca ptr, align 8
  %__args.addr = alloca ptr, align 8
  store ptr %__fn, ptr %__fn.addr, align 8, !tbaa !3
  store ptr %__args, ptr %__args.addr, align 8, !tbaa !3
  %0 = load ptr, ptr %__fn.addr, align 8, !tbaa !3
  %1 = load ptr, ptr %__args.addr, align 8, !tbaa !3
  %call = call noundef double @"_ZSt13__invoke_implIdRZN8QuantLib12_GLOBAL__N_19cdf_nu_dsERKNS0_13HestonProcessEddddNS2_14DiscretizationEE3$_0JdEET_St14__invoke_otherOT0_DpOT1_"(ptr noundef nonnull align 8 dereferenceable(40) %0, ptr noundef nonnull align 8 dereferenceable(8) %1)
  ret double %call
}

; Function Attrs: mustprogress nounwind uwtable
define internal noundef ptr @"_ZNSt14_Function_base13_Base_managerIZN8QuantLib12_GLOBAL__N_19cdf_nu_dsERKNS1_13HestonProcessEddddNS3_14DiscretizationEE3$_0E14_M_get_pointerERKSt9_Any_data"(ptr noundef nonnull align 8 dereferenceable(16) %__source) #2 align 2 {
entry:
  %__source.addr = alloca ptr, align 8
  store ptr %__source, ptr %__source.addr, align 8, !tbaa !3
  %0 = load ptr, ptr %__source.addr, align 8, !tbaa !3
  %call = call noundef nonnull align 8 dereferenceable(8) ptr @"_ZNKSt9_Any_data9_M_accessIPZN8QuantLib12_GLOBAL__N_19cdf_nu_dsERKNS1_13HestonProcessEddddNS3_14DiscretizationEE3$_0EERKT_v"(ptr noundef nonnull align 8 dereferenceable(16) %0) #14
  %1 = load ptr, ptr %call, align 8, !tbaa !3
  ret ptr %1
}

; Function Attrs: mustprogress uwtable
define internal noundef double @"_ZNSt17_Function_handlerIFddEZN8QuantLib12_GLOBAL__N_19cdf_nu_dsERKNS1_13HestonProcessEddddNS3_14DiscretizationEE3$_0E9_M_invokeERKSt9_Any_dataOd"(ptr noundef nonnull align 8 dereferenceable(16) %__functor, ptr noundef nonnull align 8 dereferenceable(8) %__args) #3 align 2 {
entry:
  %__functor.addr = alloca ptr, align 8
  %__args.addr = alloca ptr, align 8
  store ptr %__functor, ptr %__functor.addr, align 8, !tbaa !3
  store ptr %__args, ptr %__args.addr, align 8, !tbaa !3
  %0 = load ptr, ptr %__functor.addr, align 8, !tbaa !3
  %call = call noundef ptr @"_ZNSt14_Function_base13_Base_managerIZN8QuantLib12_GLOBAL__N_19cdf_nu_dsERKNS1_13HestonProcessEddddNS3_14DiscretizationEE3$_0E14_M_get_pointerERKSt9_Any_data"(ptr noundef nonnull align 8 dereferenceable(16) %0) #14
  %1 = load ptr, ptr %__args.addr, align 8, !tbaa !3
  %call1 = call noundef double @"_ZSt10__invoke_rIdRZN8QuantLib12_GLOBAL__N_19cdf_nu_dsERKNS0_13HestonProcessEddddNS2_14DiscretizationEE3$_0JdEENSt9enable_ifIX16is_invocable_r_vIT_T0_DpT1_EES9_E4typeEOSA_DpOSB_"(ptr noundef nonnull align 8 dereferenceable(40) %call, ptr noundef nonnull align 8 dereferenceable(8) %1)
  ret double %call1
}