; Function Attrs: mustprogress uwtable
define internal noundef double @"_ZNSt17_Function_handlerIFddEZN8QuantLib12_GLOBAL__N_19cdf_nu_dsERKNS1_13HestonProcessEddddNS3_14DiscretizationEE3$_0E9_M_invokeERKSt9_Any_dataOd"(ptr nocapture noundef nonnull readonly align 8 dereferenceable(16) %__functor, ptr nocapture noundef nonnull readonly align 8 dereferenceable(8) %__args) #7 align 2 {
entry:
  %__functor.val = load ptr, ptr %__functor, align 8, !tbaa !3
  %__args.val = load double, ptr %__args, align 8, !tbaa !87
  %0 = load ptr, ptr %__functor.val, align 8, !tbaa !141
  %1 = getelementptr inbounds nuw i8, ptr %__functor.val, i64 8
  %2 = load ptr, ptr %1, align 8, !tbaa !143
  %3 = load double, ptr %2, align 8, !tbaa !87
  %4 = getelementptr inbounds nuw i8, ptr %__functor.val, i64 16
  %5 = load ptr, ptr %4, align 8, !tbaa !144
  %6 = load double, ptr %5, align 8, !tbaa !87
  %7 = getelementptr inbounds nuw i8, ptr %__functor.val, i64 24
  %8 = load ptr, ptr %7, align 8, !tbaa !145
  %9 = load double, ptr %8, align 8, !tbaa !87
  %10 = getelementptr inbounds nuw i8, ptr %__functor.val, i64 32
  %11 = load ptr, ptr %10, align 8, !tbaa !146
  %12 = load double, ptr %11, align 8, !tbaa !87
  %mul.i.i.i.i = fmul double %__args.val, %3
  %call.i.i.i.i = tail call double @sin(double noundef %mul.i.i.i.i) #34, !tbaa !88
  %mul1.i.i.i.i = fmul double %call.i.i.i.i, 0x3FE45F306DC9C883
  %div.i.i.i.i = fdiv double %mul1.i.i.i.i, %__args.val
  %call3.i.i.i.i = tail call fastcc { double, double } @_ZN8QuantLib12_GLOBAL__N_13PhiERKNS_13HestonProcessERKSt7complexIdEddd(ptr noundef nonnull readonly align 8 dereferenceable(220) %0, double %__args.val, double 0.000000e+00, double noundef %6, double noundef %9, double noundef %12)
  %13 = extractvalue { double, double } %call3.i.i.i.i, 0
  %mul5.i.i.i.i = fmul double %div.i.i.i.i, %13
  ret double %mul5.i.i.i.i
}